target datalayout = "e-m:e-p270:32:32-p271:32:32-p272:64:64-i64:64-i128:128-f80:128-n8:16:32:64-S128"
target triple = "x86_64-pc-linux-gnu"

@.str.1 = private unnamed_addr constant [27 x i8] c"../openssl/apps/lib/apps.c\00", align 1
@.str.32 = private unnamed_addr constant [41 x i8] c"%s: Could not allocate %zu bytes for %s\0A\00", align 1
@.str.152 = private unnamed_addr constant [11 x i8] c"NPN buffer\00", align 1

; Function Attrs: nounwind uwtable
define dso_local ptr @app_malloc(i64 noundef %0, ptr noundef %1) #0 {
  %3 = alloca i64, align 8
  %4 = alloca ptr, align 8
  %5 = alloca ptr, align 8
  store i64 %0, ptr %3, align 8, !tbaa !28
  store ptr %1, ptr %4, align 8, !tbaa !9
  call void @llvm.lifetime.start.p0(i64 8, ptr %5) #12
  %6 = load i64, ptr %3, align 8, !tbaa !28
  %7 = call noalias ptr @CRYPTO_malloc(i64 noundef %6, ptr noundef @.str.1, i32 noundef 685)
  store ptr %7, ptr %5, align 8, !tbaa !30
  %8 = load ptr, ptr %5, align 8, !tbaa !30
  %9 = icmp eq ptr %8, null
  br i1 %9, label %10, label %14

10:                                               ; preds = %2
  %11 = call ptr @opt_getprog()
  %12 = load i64, ptr %3, align 8, !tbaa !28
  %13 = load ptr, ptr %4, align 8, !tbaa !9
  call void (ptr, ...) @app_bail_out(ptr noundef @.str.32, ptr noundef %11, i64 noundef %12, ptr noundef %13)
  br label %14

14:                                               ; preds = %10, %2
  %15 = load ptr, ptr %5, align 8, !tbaa !30
  call void @llvm.lifetime.end.p0(i64 8, ptr %5) #12
  ret ptr %15
}

; Function Attrs: nounwind uwtable
define dso_local ptr @next_protos_parse(ptr noundef %0, ptr noundef %1) #0 {
  %3 = alloca ptr, align 8
  %4 = alloca ptr, align 8
  %5 = alloca ptr, align 8
  %6 = alloca i64, align 8
  %7 = alloca ptr, align 8
  %8 = alloca i64, align 8
  %9 = alloca i64, align 8
  %10 = alloca i64, align 8
  %11 = alloca i32, align 4
  store ptr %0, ptr %4, align 8, !tbaa !33
  store ptr %1, ptr %5, align 8, !tbaa !9
  call void @llvm.lifetime.start.p0(i64 8, ptr %6) #12
  call void @llvm.lifetime.start.p0(i64 8, ptr %7) #12
  call void @llvm.lifetime.start.p0(i64 8, ptr %8) #12
  call void @llvm.lifetime.start.p0(i64 8, ptr %9) #12
  store i64 0, ptr %9, align 8, !tbaa !28
  call void @llvm.lifetime.start.p0(i64 8, ptr %10) #12
  store i64 0, ptr %10, align 8, !tbaa !28
  %12 = load ptr, ptr %5, align 8, !tbaa !9
  %13 = call i64 @strlen(ptr noundef %12) #14
  store i64 %13, ptr %6, align 8, !tbaa !28
  %14 = load i64, ptr %6, align 8, !tbaa !28
  %15 = icmp eq i64 %14, 0
  br i1 %15, label %19, label %16

16:                                               ; preds = %2
  %17 = load i64, ptr %6, align 8, !tbaa !28
  %18 = icmp uge i64 %17, 65535
  br i1 %18, label %19, label %20

19:                                               ; preds = %16, %2
  store ptr null, ptr %3, align 8
  store i32 1, ptr %11, align 4
  br label %95

20:                                               ; preds = %16
  %21 = load i64, ptr %6, align 8, !tbaa !28
  %22 = add i64 %21, 1
  %23 = call ptr @app_malloc(i64 noundef %22, ptr noundef @.str.152)
  store ptr %23, ptr %7, align 8, !tbaa !9
  store i64 0, ptr %8, align 8, !tbaa !28
  br label %24

24:                                               ; preds = %79, %20
  %25 = load i64, ptr %8, align 8, !tbaa !28
  %26 = load i64, ptr %6, align 8, !tbaa !28
  %27 = icmp ule i64 %25, %26
  br i1 %27, label %28, label %82

28:                                               ; preds = %24
  %29 = load i64, ptr %8, align 8, !tbaa !28
  %30 = load i64, ptr %6, align 8, !tbaa !28
  %31 = icmp eq i64 %29, %30
  br i1 %31, label %39, label %32

32:                                               ; preds = %28
  %33 = load ptr, ptr %5, align 8, !tbaa !9
  %34 = load i64, ptr %8, align 8, !tbaa !28
  %35 = getelementptr inbounds nuw i8, ptr %33, i64 %34
  %36 = load i8, ptr %35, align 1, !tbaa !11
  %37 = sext i8 %36 to i32
  %38 = icmp eq i32 %37, 44
  br i1 %38, label %39, label %67

39:                                               ; preds = %32, %28
  %40 = load i64, ptr %8, align 8, !tbaa !28
  %41 = load i64, ptr %9, align 8, !tbaa !28
  %42 = icmp eq i64 %40, %41
  br i1 %42, label %43, label %48

43:                                               ; preds = %39
  %44 = load i64, ptr %9, align 8, !tbaa !28
  %45 = add i64 %44, 1
  store i64 %45, ptr %9, align 8, !tbaa !28
  %46 = load i64, ptr %10, align 8, !tbaa !28
  %47 = add i64 %46, 1
  store i64 %47, ptr %10, align 8, !tbaa !28
  br label %79

48:                                               ; preds = %39
  %49 = load i64, ptr %8, align 8, !tbaa !28
  %50 = load i64, ptr %9, align 8, !tbaa !28
  %51 = sub i64 %49, %50
  %52 = icmp ugt i64 %51, 255
  br i1 %52, label %53, label %55

53:                                               ; preds = %48
  %54 = load ptr, ptr %7, align 8, !tbaa !9
  call void @CRYPTO_free(ptr noundef %54, ptr noundef @.str.1, i32 noundef 2183)
  store ptr null, ptr %3, align 8
  store i32 1, ptr %11, align 4
  br label %95

55:                                               ; preds = %48
  %56 = load i64, ptr %8, align 8, !tbaa !28
  %57 = load i64, ptr %9, align 8, !tbaa !28
  %58 = sub i64 %56, %57
  %59 = trunc i64 %58 to i8
  %60 = load ptr, ptr %7, align 8, !tbaa !9
  %61 = load i64, ptr %9, align 8, !tbaa !28
  %62 = load i64, ptr %10, align 8, !tbaa !28
  %63 = sub i64 %61, %62
  %64 = getelementptr inbounds nuw i8, ptr %60, i64 %63
  store i8 %59, ptr %64, align 1, !tbaa !11
  %65 = load i64, ptr %8, align 8, !tbaa !28
  %66 = add i64 %65, 1
  store i64 %66, ptr %9, align 8, !tbaa !28
  br label %78

67:                                               ; preds = %32
  %68 = load ptr, ptr %5, align 8, !tbaa !9
  %69 = load i64, ptr %8, align 8, !tbaa !28
  %70 = getelementptr inbounds nuw i8, ptr %68, i64 %69
  %71 = load i8, ptr %70, align 1, !tbaa !11
  %72 = load ptr, ptr %7, align 8, !tbaa !9
  %73 = load i64, ptr %8, align 8, !tbaa !28
  %74 = add i64 %73, 1
  %75 = load i64, ptr %10, align 8, !tbaa !28
  %76 = sub i64 %74, %75
  %77 = getelementptr inbounds nuw i8, ptr %72, i64 %76
  store i8 %71, ptr %77, align 1, !tbaa !11
  br label %78

78:                                               ; preds = %67, %55
  br label %79

79:                                               ; preds = %78, %43
  %80 = load i64, ptr %8, align 8, !tbaa !28
  %81 = add i64 %80, 1
  store i64 %81, ptr %8, align 8, !tbaa !28
  br label %24, !llvm.loop !154

82:                                               ; preds = %24
  %83 = load i64, ptr %6, align 8, !tbaa !28
  %84 = load i64, ptr %10, align 8, !tbaa !28
  %85 = icmp ule i64 %83, %84
  br i1 %85, label %86, label %88

86:                                               ; preds = %82
  %87 = load ptr, ptr %7, align 8, !tbaa !9
  call void @CRYPTO_free(ptr noundef %87, ptr noundef @.str.1, i32 noundef 2194)
  store ptr null, ptr %3, align 8
  store i32 1, ptr %11, align 4
  br label %95

88:                                               ; preds = %82
  %89 = load i64, ptr %6, align 8, !tbaa !28
  %90 = add i64 %89, 1
  %91 = load i64, ptr %10, align 8, !tbaa !28
  %92 = sub i64 %90, %91
  %93 = load ptr, ptr %4, align 8, !tbaa !33
  store i64 %92, ptr %93, align 8, !tbaa !28
  %94 = load ptr, ptr %7, align 8, !tbaa !9
  store ptr %94, ptr %3, align 8
  store i32 1, ptr %11, align 4
  br label %95

95:                                               ; preds = %88, %86, %53, %19
  call void @llvm.lifetime.end.p0(i64 8, ptr %10) #12
  call void @llvm.lifetime.end.p0(i64 8, ptr %9) #12
  call void @llvm.lifetime.end.p0(i64 8, ptr %8) #12
  call void @llvm.lifetime.end.p0(i64 8, ptr %7) #12
  call void @llvm.lifetime.end.p0(i64 8, ptr %6) #12
  %96 = load ptr, ptr %3, align 8
  ret ptr %96
}