; Function Attrs: nounwind uwtable
define dso_local ptr @next_protos_parse(ptr noundef writeonly captures(none) %0, ptr noundef readonly captures(none) %1) local_unnamed_addr #0 {
  %3 = tail call i64 @strlen(ptr noundef nonnull dereferenceable(1) %1) #29
  %4 = add i64 %3, -65535
  %or.cond = icmp ult i64 %4, -65534
  br i1 %or.cond, label %38, label %5

5:                                                ; preds = %2
  %6 = add nuw nsw i64 %3, 1
  %7 = tail call noalias ptr @CRYPTO_malloc(i64 noundef %6, ptr noundef nonnull @.str.1, i32 noundef 685) #27
  %8 = icmp eq ptr %7, null
  br i1 %8, label %9, label %app_malloc.exit.preheader

9:                                                ; preds = %5
  %10 = tail call ptr @opt_getprog() #27
  tail call void (ptr, ...) @app_bail_out(ptr noundef nonnull @.str.32, ptr noundef %10, i64 noundef %6, ptr noundef nonnull @.str.152)
  unreachable

app_malloc.exit.preheader:                        ; preds = %5, %app_malloc.exit
  %.047 = phi i64 [ %.1, %app_malloc.exit ], [ 0, %5 ]
  %.03746 = phi i64 [ %.138, %app_malloc.exit ], [ 0, %5 ]
  %.03945 = phi i64 [ %.pre-phi, %app_malloc.exit ], [ 0, %5 ]
  %11 = icmp eq i64 %.03945, %3
  br i1 %11, label %16, label %12

12:                                               ; preds = %app_malloc.exit.preheader
  %13 = getelementptr inbounds nuw i8, ptr %1, i64 %.03945
  %14 = load i8, ptr %13, align 1, !tbaa !13
  %15 = icmp eq i8 %14, 44
  br i1 %15, label %16, label %30

16:                                               ; preds = %12, %app_malloc.exit.preheader
  %17 = icmp eq i64 %.03945, %.03746
  br i1 %17, label %18, label %21

18:                                               ; preds = %16
  %19 = add nuw nsw i64 %.03746, 1
  %20 = add i64 %.047, 1
  %.pre = add nuw i64 %.03945, 1
  br label %app_malloc.exit

21:                                               ; preds = %16
  %22 = sub i64 %.03945, %.03746
  %23 = icmp ugt i64 %22, 255
  br i1 %23, label %24, label %25

24:                                               ; preds = %21
  tail call void @CRYPTO_free(ptr noundef nonnull %7, ptr noundef nonnull @.str.1, i32 noundef 2183) #27
  br label %38

25:                                               ; preds = %21
  %26 = trunc nuw i64 %22 to i8
  %27 = sub i64 %.03746, %.047
  %28 = getelementptr inbounds nuw i8, ptr %7, i64 %27
  store i8 %26, ptr %28, align 1, !tbaa !13
  %29 = add nuw i64 %.03945, 1
  br label %app_malloc.exit

30:                                               ; preds = %12
  %31 = add nuw i64 %.03945, 1
  %32 = sub i64 %31, %.047
  %33 = getelementptr inbounds nuw i8, ptr %7, i64 %32
  store i8 %14, ptr %33, align 1, !tbaa !13
  br label %app_malloc.exit

app_malloc.exit:                                  ; preds = %25, %30, %18
  %.pre-phi = phi i64 [ %29, %25 ], [ %31, %30 ], [ %.pre, %18 ]
  %.138 = phi i64 [ %29, %25 ], [ %.03746, %30 ], [ %19, %18 ]
  %.1 = phi i64 [ %.047, %25 ], [ %.047, %30 ], [ %20, %18 ]
  %exitcond.not = icmp eq i64 %.pre-phi, %6
  br i1 %exitcond.not, label %34, label %app_malloc.exit.preheader, !llvm.loop !91

34:                                               ; preds = %app_malloc.exit
  %.not43 = icmp ugt i64 %3, %.1
  br i1 %.not43, label %36, label %35

35:                                               ; preds = %34
  tail call void @CRYPTO_free(ptr noundef nonnull %7, ptr noundef nonnull @.str.1, i32 noundef 2194) #27
  br label %38

36:                                               ; preds = %34
  %37 = sub nsw i64 %6, %.1
  store i64 %37, ptr %0, align 8, !tbaa !24
  br label %38

38:                                               ; preds = %2, %36, %35, %24
  %.040 = phi ptr [ null, %24 ], [ null, %35 ], [ %7, %36 ], [ null, %2 ]
  ret ptr %.040
}